; Function Attrs: mustprogress uwtable
define internal void @_ZN4base9SingletonIN3net12_GLOBAL__N_113DefaultRandomENS_22DefaultSingletonTraitsIS3_EES3_E6OnExitEPv(ptr readnone captures(none) %0) #0 align 2 personality ptr @__gxx_personality_v0 {
  %2 = load atomic volatile i64, ptr @_ZN4base9SingletonIN3net12_GLOBAL__N_113DefaultRandomENS_22DefaultSingletonTraitsIS3_EES3_E9instance_E monotonic, align 8
  %3 = icmp eq i64 %2, 0
  br i1 %3, label %_ZN4base22DefaultSingletonTraitsIN3net12_GLOBAL__N_113DefaultRandomEE6DeleteEPS3_.exit, label %4

4:                                                ; preds = %1
  %5 = inttoptr i64 %2 to ptr
  %6 = load ptr, ptr %5, align 8, !tbaa !3
  %7 = getelementptr inbounds nuw i8, ptr %6, i64 8
  %8 = load ptr, ptr %7, align 8
  tail call void %8(ptr noundef nonnull align 8 dereferenceable(8) %5) #8
  br label %_ZN4base22DefaultSingletonTraitsIN3net12_GLOBAL__N_113DefaultRandomEE6DeleteEPS3_.exit

_ZN4base22DefaultSingletonTraitsIN3net12_GLOBAL__N_113DefaultRandomEE6DeleteEPS3_.exit: ; preds = %1, %4
  store i64 0, ptr @_ZN4base9SingletonIN3net12_GLOBAL__N_113DefaultRandomENS_22DefaultSingletonTraitsIS3_EES3_E9instance_E, align 8, !tbaa !6
  ret void
}